; Function Attrs: nounwind uwtable
define range(i32 0, 2) i32 @Fraig_CheckTfi2(ptr noundef captures(none) %0, ptr noundef readonly captures(none) %1, ptr noundef %2) local_unnamed_addr #0 {
  %4 = getelementptr inbounds nuw i8, ptr %0, i64 128
  %5 = load i32, ptr %4, align 8
  %6 = add nsw i32 %5, 1
  store i32 %6, ptr %4, align 8
  %7 = tail call ptr @Fraig_NodeVecAlloc(i32 noundef 100) #15
  %8 = ptrtoint ptr %2 to i64
  %9 = and i64 %8, -2
  %10 = inttoptr i64 %9 to ptr
  %.val.i = load i32, ptr %4, align 8
  tail call fastcc void @Fraig_Dfs_rec(i32 %.val.i, ptr noundef %10, ptr noundef %7, i32 noundef 1)
  %11 = getelementptr inbounds nuw i8, ptr %1, i64 16
  %12 = load i32, ptr %11, align 8
  %13 = load i32, ptr %4, align 8
  %14 = icmp eq i32 %12, %13
  %15 = zext i1 %14 to i32
  tail call void @Fraig_NodeVecFree(ptr noundef %7) #15
  ret i32 %15
}